ARM GAS  /tmp/ccVvkUmm.s 			page 1


   1              		.cpu cortex-m3
   2              		.arch armv7-m
   3              		.fpu softvfp
   4              		.eabi_attribute 20, 1
   5              		.eabi_attribute 21, 1
   6              		.eabi_attribute 23, 3
   7              		.eabi_attribute 24, 1
   8              		.eabi_attribute 25, 1
   9              		.eabi_attribute 26, 1
  10              		.eabi_attribute 30, 1
  11              		.eabi_attribute 34, 1
  12              		.eabi_attribute 18, 4
  13              		.file	"OLED.c"
  14              		.text
  15              	.Ltext0:
  16              		.cfi_sections	.debug_frame
  17              		.file 1 "Core/OLED/OLED.c"
  18              		.section	.text.OLED_WriteCommand,"ax",%progbits
  19              		.align	1
  20              		.global	OLED_WriteCommand
  21              		.syntax unified
  22              		.thumb
  23              		.thumb_func
  25              	OLED_WriteCommand:
  26              	.LVL0:
  27              	.LFB65:
   1:Core/OLED/OLED.c **** #include "main.h"
   2:Core/OLED/OLED.c **** #include "OLED_Font.h"
   3:Core/OLED/OLED.c **** #include "i2c.h"
   4:Core/OLED/OLED.c **** 
   5:Core/OLED/OLED.c **** #define OLED0561_ADD	0x78  //OLED的I2C地址
   6:Core/OLED/OLED.c **** #define COM				0x00  //OLED 指令
   7:Core/OLED/OLED.c **** #define DAT 			0x40  //OLED 数据
   8:Core/OLED/OLED.c **** 
   9:Core/OLED/OLED.c **** void OLED_WriteCommand(uint8_t I2C_Command)//写命令
  10:Core/OLED/OLED.c **** {
  28              		.loc 1 10 1 view -0
  29              		.cfi_startproc
  30              		@ args = 0, pretend = 0, frame = 8
  31              		@ frame_needed = 0, uses_anonymous_args = 0
  32              		.loc 1 10 1 is_stmt 0 view .LVU1
  33 0000 00B5     		push	{lr}
  34              	.LCFI0:
  35              		.cfi_def_cfa_offset 4
  36              		.cfi_offset 14, -4
  37 0002 87B0     		sub	sp, sp, #28
  38              	.LCFI1:
  39              		.cfi_def_cfa_offset 32
  40 0004 8DF81700 		strb	r0, [sp, #23]
  11:Core/OLED/OLED.c **** 	HAL_I2C_Mem_Write(&hi2c1,OLED0561_ADD,COM,I2C_MEMADD_SIZE_8BIT,&I2C_Command,1,100);
  41              		.loc 1 11 2 is_stmt 1 view .LVU2
  42 0008 6423     		movs	r3, #100
  43 000a 0293     		str	r3, [sp, #8]
  44 000c 0123     		movs	r3, #1
  45 000e 0193     		str	r3, [sp, #4]
  46 0010 0DF11702 		add	r2, sp, #23
  47 0014 0092     		str	r2, [sp]
ARM GAS  /tmp/ccVvkUmm.s 			page 2


  48 0016 0022     		movs	r2, #0
  49 0018 7821     		movs	r1, #120
  50 001a 0348     		ldr	r0, .L3
  51              	.LVL1:
  52              		.loc 1 11 2 is_stmt 0 view .LVU3
  53 001c FFF7FEFF 		bl	HAL_I2C_Mem_Write
  54              	.LVL2:
  12:Core/OLED/OLED.c **** }
  55              		.loc 1 12 1 view .LVU4
  56 0020 07B0     		add	sp, sp, #28
  57              	.LCFI2:
  58              		.cfi_def_cfa_offset 4
  59              		@ sp needed
  60 0022 5DF804FB 		ldr	pc, [sp], #4
  61              	.L4:
  62 0026 00BF     		.align	2
  63              	.L3:
  64 0028 00000000 		.word	hi2c1
  65              		.cfi_endproc
  66              	.LFE65:
  68              		.section	.text.OLED_WriteData,"ax",%progbits
  69              		.align	1
  70              		.global	OLED_WriteData
  71              		.syntax unified
  72              		.thumb
  73              		.thumb_func
  75              	OLED_WriteData:
  76              	.LVL3:
  77              	.LFB66:
  13:Core/OLED/OLED.c **** 		
  14:Core/OLED/OLED.c **** void OLED_WriteData(uint8_t I2C_Data)//写数据
  15:Core/OLED/OLED.c **** {
  78              		.loc 1 15 1 is_stmt 1 view -0
  79              		.cfi_startproc
  80              		@ args = 0, pretend = 0, frame = 8
  81              		@ frame_needed = 0, uses_anonymous_args = 0
  82              		.loc 1 15 1 is_stmt 0 view .LVU6
  83 0000 00B5     		push	{lr}
  84              	.LCFI3:
  85              		.cfi_def_cfa_offset 4
  86              		.cfi_offset 14, -4
  87 0002 87B0     		sub	sp, sp, #28
  88              	.LCFI4:
  89              		.cfi_def_cfa_offset 32
  90 0004 8DF81700 		strb	r0, [sp, #23]
  16:Core/OLED/OLED.c **** 	HAL_I2C_Mem_Write(&hi2c1,OLED0561_ADD,DAT,I2C_MEMADD_SIZE_8BIT,&I2C_Data,1,100);
  91              		.loc 1 16 2 is_stmt 1 view .LVU7
  92 0008 6423     		movs	r3, #100
  93 000a 0293     		str	r3, [sp, #8]
  94 000c 0123     		movs	r3, #1
  95 000e 0193     		str	r3, [sp, #4]
  96 0010 0DF11702 		add	r2, sp, #23
  97 0014 0092     		str	r2, [sp]
  98 0016 4022     		movs	r2, #64
  99 0018 7821     		movs	r1, #120
 100 001a 0348     		ldr	r0, .L7
 101              	.LVL4:
ARM GAS  /tmp/ccVvkUmm.s 			page 3


 102              		.loc 1 16 2 is_stmt 0 view .LVU8
 103 001c FFF7FEFF 		bl	HAL_I2C_Mem_Write
 104              	.LVL5:
  17:Core/OLED/OLED.c **** }
 105              		.loc 1 17 1 view .LVU9
 106 0020 07B0     		add	sp, sp, #28
 107              	.LCFI5:
 108              		.cfi_def_cfa_offset 4
 109              		@ sp needed
 110 0022 5DF804FB 		ldr	pc, [sp], #4
 111              	.L8:
 112 0026 00BF     		.align	2
 113              	.L7:
 114 0028 00000000 		.word	hi2c1
 115              		.cfi_endproc
 116              	.LFE66:
 118              		.section	.text.OLED_SetCursor,"ax",%progbits
 119              		.align	1
 120              		.global	OLED_SetCursor
 121              		.syntax unified
 122              		.thumb
 123              		.thumb_func
 125              	OLED_SetCursor:
 126              	.LVL6:
 127              	.LFB67:
  18:Core/OLED/OLED.c **** 
  19:Core/OLED/OLED.c **** /**
  20:Core/OLED/OLED.c ****   * @brief  OLED设置光标位置
  21:Core/OLED/OLED.c ****   * @param  Y 以左上角为原点，向下方向的坐标，范围：0~7
  22:Core/OLED/OLED.c ****   * @param  X 以左上角为原点，向右方向的坐标，范围：0~127
  23:Core/OLED/OLED.c ****   * @retval 无
  24:Core/OLED/OLED.c ****   */
  25:Core/OLED/OLED.c **** void OLED_SetCursor(uint8_t Y, uint8_t X)
  26:Core/OLED/OLED.c **** {
 128              		.loc 1 26 1 is_stmt 1 view -0
 129              		.cfi_startproc
 130              		@ args = 0, pretend = 0, frame = 0
 131              		@ frame_needed = 0, uses_anonymous_args = 0
 132              		.loc 1 26 1 is_stmt 0 view .LVU11
 133 0000 10B5     		push	{r4, lr}
 134              	.LCFI6:
 135              		.cfi_def_cfa_offset 8
 136              		.cfi_offset 4, -8
 137              		.cfi_offset 14, -4
 138 0002 0C46     		mov	r4, r1
  27:Core/OLED/OLED.c **** 	OLED_WriteCommand(0xB0 | Y);					//设置Y位置
 139              		.loc 1 27 2 is_stmt 1 view .LVU12
 140 0004 40F0B000 		orr	r0, r0, #176
 141              	.LVL7:
 142              		.loc 1 27 2 is_stmt 0 view .LVU13
 143 0008 FFF7FEFF 		bl	OLED_WriteCommand
 144              	.LVL8:
  28:Core/OLED/OLED.c **** 	OLED_WriteCommand(0x10 | ((X & 0xF0) >> 4));	//设置X位置高4位
 145              		.loc 1 28 2 is_stmt 1 view .LVU14
 146              		.loc 1 28 39 is_stmt 0 view .LVU15
 147 000c 2009     		lsrs	r0, r4, #4
 148              		.loc 1 28 2 view .LVU16
ARM GAS  /tmp/ccVvkUmm.s 			page 4


 149 000e 40F01000 		orr	r0, r0, #16
 150 0012 FFF7FEFF 		bl	OLED_WriteCommand
 151              	.LVL9:
  29:Core/OLED/OLED.c **** 	OLED_WriteCommand(0x00 | (X & 0x0F));			//设置X位置低4位
 152              		.loc 1 29 2 is_stmt 1 view .LVU17
 153 0016 04F00F00 		and	r0, r4, #15
 154 001a FFF7FEFF 		bl	OLED_WriteCommand
 155              	.LVL10:
  30:Core/OLED/OLED.c **** }
 156              		.loc 1 30 1 is_stmt 0 view .LVU18
 157 001e 10BD     		pop	{r4, pc}
 158              		.cfi_endproc
 159              	.LFE67:
 161              		.section	.text.OLED_Clear,"ax",%progbits
 162              		.align	1
 163              		.global	OLED_Clear
 164              		.syntax unified
 165              		.thumb
 166              		.thumb_func
 168              	OLED_Clear:
 169              	.LFB68:
  31:Core/OLED/OLED.c **** 
  32:Core/OLED/OLED.c **** /**
  33:Core/OLED/OLED.c ****   * @brief  OLED清屏
  34:Core/OLED/OLED.c ****   * @param  无
  35:Core/OLED/OLED.c ****   * @retval 无
  36:Core/OLED/OLED.c ****   */
  37:Core/OLED/OLED.c **** void OLED_Clear(void)
  38:Core/OLED/OLED.c **** {  
 170              		.loc 1 38 1 is_stmt 1 view -0
 171              		.cfi_startproc
 172              		@ args = 0, pretend = 0, frame = 0
 173              		@ frame_needed = 0, uses_anonymous_args = 0
 174 0000 38B5     		push	{r3, r4, r5, lr}
 175              	.LCFI7:
 176              		.cfi_def_cfa_offset 16
 177              		.cfi_offset 3, -16
 178              		.cfi_offset 4, -12
 179              		.cfi_offset 5, -8
 180              		.cfi_offset 14, -4
  39:Core/OLED/OLED.c **** 	uint8_t i, j;
 181              		.loc 1 39 2 view .LVU20
  40:Core/OLED/OLED.c **** 	for (j = 0; j < 8; j++)
 182              		.loc 1 40 2 view .LVU21
 183              	.LVL11:
 184              		.loc 1 40 9 is_stmt 0 view .LVU22
 185 0002 0025     		movs	r5, #0
 186              		.loc 1 40 2 view .LVU23
 187 0004 09E0     		b	.L12
 188              	.LVL12:
 189              	.L14:
  41:Core/OLED/OLED.c **** 	{
  42:Core/OLED/OLED.c **** 		OLED_SetCursor(j, 0);
  43:Core/OLED/OLED.c **** 		for(i = 0; i < 128; i++)
  44:Core/OLED/OLED.c **** 		{
  45:Core/OLED/OLED.c **** 			OLED_WriteData(0x00);
 190              		.loc 1 45 4 is_stmt 1 discriminator 3 view .LVU24
ARM GAS  /tmp/ccVvkUmm.s 			page 5


 191 0006 0020     		movs	r0, #0
 192 0008 FFF7FEFF 		bl	OLED_WriteData
 193              	.LVL13:
  43:Core/OLED/OLED.c **** 		{
 194              		.loc 1 43 24 discriminator 3 view .LVU25
 195 000c 0134     		adds	r4, r4, #1
 196              	.LVL14:
  43:Core/OLED/OLED.c **** 		{
 197              		.loc 1 43 24 is_stmt 0 discriminator 3 view .LVU26
 198 000e E4B2     		uxtb	r4, r4
 199              	.LVL15:
 200              	.L13:
  43:Core/OLED/OLED.c **** 		{
 201              		.loc 1 43 16 is_stmt 1 discriminator 1 view .LVU27
 202 0010 14F0800F 		tst	r4, #128
 203 0014 F7D0     		beq	.L14
  40:Core/OLED/OLED.c **** 	for (j = 0; j < 8; j++)
 204              		.loc 1 40 22 discriminator 2 view .LVU28
 205 0016 0135     		adds	r5, r5, #1
 206              	.LVL16:
  40:Core/OLED/OLED.c **** 	for (j = 0; j < 8; j++)
 207              		.loc 1 40 22 is_stmt 0 discriminator 2 view .LVU29
 208 0018 EDB2     		uxtb	r5, r5
 209              	.LVL17:
 210              	.L12:
  40:Core/OLED/OLED.c **** 	for (j = 0; j < 8; j++)
 211              		.loc 1 40 16 is_stmt 1 discriminator 1 view .LVU30
 212 001a 072D     		cmp	r5, #7
 213 001c 05D8     		bhi	.L17
  42:Core/OLED/OLED.c **** 		for(i = 0; i < 128; i++)
 214              		.loc 1 42 3 view .LVU31
 215 001e 0021     		movs	r1, #0
 216 0020 2846     		mov	r0, r5
 217 0022 FFF7FEFF 		bl	OLED_SetCursor
 218              	.LVL18:
  43:Core/OLED/OLED.c **** 		{
 219              		.loc 1 43 3 view .LVU32
  43:Core/OLED/OLED.c **** 		{
 220              		.loc 1 43 9 is_stmt 0 view .LVU33
 221 0026 0024     		movs	r4, #0
  43:Core/OLED/OLED.c **** 		{
 222              		.loc 1 43 3 view .LVU34
 223 0028 F2E7     		b	.L13
 224              	.LVL19:
 225              	.L17:
  46:Core/OLED/OLED.c **** 		}
  47:Core/OLED/OLED.c **** 	}
  48:Core/OLED/OLED.c **** }
 226              		.loc 1 48 1 view .LVU35
 227 002a 38BD     		pop	{r3, r4, r5, pc}
 228              		.loc 1 48 1 view .LVU36
 229              		.cfi_endproc
 230              	.LFE68:
 232              		.section	.text.OLED_ShowChar,"ax",%progbits
 233              		.align	1
 234              		.global	OLED_ShowChar
 235              		.syntax unified
ARM GAS  /tmp/ccVvkUmm.s 			page 6


 236              		.thumb
 237              		.thumb_func
 239              	OLED_ShowChar:
 240              	.LVL20:
 241              	.LFB69:
  49:Core/OLED/OLED.c **** 
  50:Core/OLED/OLED.c **** /**
  51:Core/OLED/OLED.c ****   * @brief  OLED显示一个字符
  52:Core/OLED/OLED.c ****   * @param  Line 行位置，范围：1~4
  53:Core/OLED/OLED.c ****   * @param  Column 列位置，范围：1~16
  54:Core/OLED/OLED.c ****   * @param  Char 要显示的一个字符，范围：ASCII可见字符
  55:Core/OLED/OLED.c ****   * @retval 无
  56:Core/OLED/OLED.c ****   */
  57:Core/OLED/OLED.c **** void OLED_ShowChar(uint8_t Line, uint8_t Column, char Char)
  58:Core/OLED/OLED.c **** {      	
 242              		.loc 1 58 1 is_stmt 1 view -0
 243              		.cfi_startproc
 244              		@ args = 0, pretend = 0, frame = 0
 245              		@ frame_needed = 0, uses_anonymous_args = 0
 246              		.loc 1 58 1 is_stmt 0 view .LVU38
 247 0000 F8B5     		push	{r3, r4, r5, r6, r7, lr}
 248              	.LCFI8:
 249              		.cfi_def_cfa_offset 24
 250              		.cfi_offset 3, -24
 251              		.cfi_offset 4, -20
 252              		.cfi_offset 5, -16
 253              		.cfi_offset 6, -12
 254              		.cfi_offset 7, -8
 255              		.cfi_offset 14, -4
 256 0002 1546     		mov	r5, r2
  59:Core/OLED/OLED.c **** 	uint8_t i;
 257              		.loc 1 59 2 is_stmt 1 view .LVU39
  60:Core/OLED/OLED.c **** 	OLED_SetCursor((Line - 1) * 2, (Column - 1) * 8);		//设置光标位置在上半部分
 258              		.loc 1 60 2 view .LVU40
 259 0004 461E     		subs	r6, r0, #1
 260 0006 7600     		lsls	r6, r6, #1
 261 0008 F6B2     		uxtb	r6, r6
 262 000a 4F1E     		subs	r7, r1, #1
 263 000c FF00     		lsls	r7, r7, #3
 264 000e FFB2     		uxtb	r7, r7
 265 0010 3946     		mov	r1, r7
 266              	.LVL21:
 267              		.loc 1 60 2 is_stmt 0 view .LVU41
 268 0012 3046     		mov	r0, r6
 269              	.LVL22:
 270              		.loc 1 60 2 view .LVU42
 271 0014 FFF7FEFF 		bl	OLED_SetCursor
 272              	.LVL23:
  61:Core/OLED/OLED.c **** 	for (i = 0; i < 8; i++)
 273              		.loc 1 61 2 is_stmt 1 view .LVU43
 274              		.loc 1 61 9 is_stmt 0 view .LVU44
 275 0018 0024     		movs	r4, #0
 276              		.loc 1 61 2 view .LVU45
 277 001a 09E0     		b	.L19
 278              	.LVL24:
 279              	.L20:
  62:Core/OLED/OLED.c **** 	{
ARM GAS  /tmp/ccVvkUmm.s 			page 7


  63:Core/OLED/OLED.c **** 		OLED_WriteData(OLED_F8x16[Char - ' '][i]);			//显示上半部分内容
 280              		.loc 1 63 3 is_stmt 1 discriminator 3 view .LVU46
 281              		.loc 1 63 34 is_stmt 0 discriminator 3 view .LVU47
 282 001c A5F12002 		sub	r2, r5, #32
 283              		.loc 1 63 40 discriminator 3 view .LVU48
 284 0020 0F4B     		ldr	r3, .L24
 285 0022 03EB0213 		add	r3, r3, r2, lsl #4
 286              		.loc 1 63 3 discriminator 3 view .LVU49
 287 0026 185D     		ldrb	r0, [r3, r4]	@ zero_extendqisi2
 288 0028 FFF7FEFF 		bl	OLED_WriteData
 289              	.LVL25:
  61:Core/OLED/OLED.c **** 	for (i = 0; i < 8; i++)
 290              		.loc 1 61 22 is_stmt 1 discriminator 3 view .LVU50
 291 002c 0134     		adds	r4, r4, #1
 292              	.LVL26:
  61:Core/OLED/OLED.c **** 	for (i = 0; i < 8; i++)
 293              		.loc 1 61 22 is_stmt 0 discriminator 3 view .LVU51
 294 002e E4B2     		uxtb	r4, r4
 295              	.LVL27:
 296              	.L19:
  61:Core/OLED/OLED.c **** 	for (i = 0; i < 8; i++)
 297              		.loc 1 61 16 is_stmt 1 discriminator 1 view .LVU52
 298 0030 072C     		cmp	r4, #7
 299 0032 F3D9     		bls	.L20
  64:Core/OLED/OLED.c **** 	}
  65:Core/OLED/OLED.c **** 	OLED_SetCursor((Line - 1) * 2 + 1, (Column - 1) * 8);	//设置光标位置在下半部分
 300              		.loc 1 65 2 view .LVU53
 301 0034 701C     		adds	r0, r6, #1
 302 0036 3946     		mov	r1, r7
 303 0038 C0B2     		uxtb	r0, r0
 304 003a FFF7FEFF 		bl	OLED_SetCursor
 305              	.LVL28:
  66:Core/OLED/OLED.c **** 	for (i = 0; i < 8; i++)
 306              		.loc 1 66 2 view .LVU54
 307              		.loc 1 66 9 is_stmt 0 view .LVU55
 308 003e 0024     		movs	r4, #0
 309              		.loc 1 66 2 view .LVU56
 310 0040 0BE0     		b	.L21
 311              	.LVL29:
 312              	.L22:
  67:Core/OLED/OLED.c **** 	{
  68:Core/OLED/OLED.c **** 		OLED_WriteData(OLED_F8x16[Char - ' '][i + 8]);		//显示下半部分内容
 313              		.loc 1 68 3 is_stmt 1 discriminator 3 view .LVU57
 314              		.loc 1 68 34 is_stmt 0 discriminator 3 view .LVU58
 315 0042 A5F12001 		sub	r1, r5, #32
 316              		.loc 1 68 43 discriminator 3 view .LVU59
 317 0046 04F10802 		add	r2, r4, #8
 318              		.loc 1 68 40 discriminator 3 view .LVU60
 319 004a 054B     		ldr	r3, .L24
 320 004c 03EB0113 		add	r3, r3, r1, lsl #4
 321              		.loc 1 68 3 discriminator 3 view .LVU61
 322 0050 985C     		ldrb	r0, [r3, r2]	@ zero_extendqisi2
 323 0052 FFF7FEFF 		bl	OLED_WriteData
 324              	.LVL30:
  66:Core/OLED/OLED.c **** 	for (i = 0; i < 8; i++)
 325              		.loc 1 66 22 is_stmt 1 discriminator 3 view .LVU62
 326 0056 0134     		adds	r4, r4, #1
ARM GAS  /tmp/ccVvkUmm.s 			page 8


 327              	.LVL31:
  66:Core/OLED/OLED.c **** 	for (i = 0; i < 8; i++)
 328              		.loc 1 66 22 is_stmt 0 discriminator 3 view .LVU63
 329 0058 E4B2     		uxtb	r4, r4
 330              	.LVL32:
 331              	.L21:
  66:Core/OLED/OLED.c **** 	for (i = 0; i < 8; i++)
 332              		.loc 1 66 16 is_stmt 1 discriminator 1 view .LVU64
 333 005a 072C     		cmp	r4, #7
 334 005c F1D9     		bls	.L22
  69:Core/OLED/OLED.c **** 	}
  70:Core/OLED/OLED.c **** }
 335              		.loc 1 70 1 is_stmt 0 view .LVU65
 336 005e F8BD     		pop	{r3, r4, r5, r6, r7, pc}
 337              	.LVL33:
 338              	.L25:
 339              		.loc 1 70 1 view .LVU66
 340              		.align	2
 341              	.L24:
 342 0060 00000000 		.word	OLED_F8x16
 343              		.cfi_endproc
 344              	.LFE69:
 346              		.section	.text.OLED_ShowString,"ax",%progbits
 347              		.align	1
 348              		.global	OLED_ShowString
 349              		.syntax unified
 350              		.thumb
 351              		.thumb_func
 353              	OLED_ShowString:
 354              	.LVL34:
 355              	.LFB70:
  71:Core/OLED/OLED.c **** 
  72:Core/OLED/OLED.c **** /**
  73:Core/OLED/OLED.c ****   * @brief  OLED显示字符串
  74:Core/OLED/OLED.c ****   * @param  Line 起始行位置，范围：1~4
  75:Core/OLED/OLED.c ****   * @param  Column 起始列位置，范围：1~16
  76:Core/OLED/OLED.c ****   * @param  String 要显示的字符串，范围：ASCII可见字符
  77:Core/OLED/OLED.c ****   * @retval 无
  78:Core/OLED/OLED.c ****   */
  79:Core/OLED/OLED.c **** void OLED_ShowString(uint8_t Line, uint8_t Column, char *String)
  80:Core/OLED/OLED.c **** {
 356              		.loc 1 80 1 is_stmt 1 view -0
 357              		.cfi_startproc
 358              		@ args = 0, pretend = 0, frame = 0
 359              		@ frame_needed = 0, uses_anonymous_args = 0
 360              		.loc 1 80 1 is_stmt 0 view .LVU68
 361 0000 F8B5     		push	{r3, r4, r5, r6, r7, lr}
 362              	.LCFI9:
 363              		.cfi_def_cfa_offset 24
 364              		.cfi_offset 3, -24
 365              		.cfi_offset 4, -20
 366              		.cfi_offset 5, -16
 367              		.cfi_offset 6, -12
 368              		.cfi_offset 7, -8
 369              		.cfi_offset 14, -4
 370 0002 0746     		mov	r7, r0
 371 0004 0E46     		mov	r6, r1
ARM GAS  /tmp/ccVvkUmm.s 			page 9


 372 0006 1546     		mov	r5, r2
  81:Core/OLED/OLED.c **** 	uint8_t i;
 373              		.loc 1 81 2 is_stmt 1 view .LVU69
  82:Core/OLED/OLED.c **** 	for (i = 0; String[i] != '\0'; i++)
 374              		.loc 1 82 2 view .LVU70
 375              	.LVL35:
 376              		.loc 1 82 9 is_stmt 0 view .LVU71
 377 0008 0024     		movs	r4, #0
 378              		.loc 1 82 2 view .LVU72
 379 000a 06E0     		b	.L27
 380              	.LVL36:
 381              	.L28:
  83:Core/OLED/OLED.c **** 	{
  84:Core/OLED/OLED.c **** 		OLED_ShowChar(Line, Column + i, String[i]);
 382              		.loc 1 84 3 is_stmt 1 discriminator 3 view .LVU73
 383 000c A119     		adds	r1, r4, r6
 384 000e C9B2     		uxtb	r1, r1
 385 0010 3846     		mov	r0, r7
 386 0012 FFF7FEFF 		bl	OLED_ShowChar
 387              	.LVL37:
  82:Core/OLED/OLED.c **** 	for (i = 0; String[i] != '\0'; i++)
 388              		.loc 1 82 34 discriminator 3 view .LVU74
 389 0016 0134     		adds	r4, r4, #1
 390              	.LVL38:
  82:Core/OLED/OLED.c **** 	for (i = 0; String[i] != '\0'; i++)
 391              		.loc 1 82 34 is_stmt 0 discriminator 3 view .LVU75
 392 0018 E4B2     		uxtb	r4, r4
 393              	.LVL39:
 394              	.L27:
  82:Core/OLED/OLED.c **** 	for (i = 0; String[i] != '\0'; i++)
 395              		.loc 1 82 24 is_stmt 1 discriminator 1 view .LVU76
  82:Core/OLED/OLED.c **** 	for (i = 0; String[i] != '\0'; i++)
 396              		.loc 1 82 20 is_stmt 0 discriminator 1 view .LVU77
 397 001a 2A5D     		ldrb	r2, [r5, r4]	@ zero_extendqisi2
  82:Core/OLED/OLED.c **** 	for (i = 0; String[i] != '\0'; i++)
 398              		.loc 1 82 24 discriminator 1 view .LVU78
 399 001c 002A     		cmp	r2, #0
 400 001e F5D1     		bne	.L28
  85:Core/OLED/OLED.c **** 	}
  86:Core/OLED/OLED.c **** }
 401              		.loc 1 86 1 view .LVU79
 402 0020 F8BD     		pop	{r3, r4, r5, r6, r7, pc}
 403              		.loc 1 86 1 view .LVU80
 404              		.cfi_endproc
 405              	.LFE70:
 407              		.section	.text.OLED_Pow,"ax",%progbits
 408              		.align	1
 409              		.global	OLED_Pow
 410              		.syntax unified
 411              		.thumb
 412              		.thumb_func
 414              	OLED_Pow:
 415              	.LVL40:
 416              	.LFB71:
  87:Core/OLED/OLED.c **** 
  88:Core/OLED/OLED.c **** /**
  89:Core/OLED/OLED.c ****   * @brief  OLED次方函数
ARM GAS  /tmp/ccVvkUmm.s 			page 10


  90:Core/OLED/OLED.c ****   * @retval 返回值等于X的Y次方
  91:Core/OLED/OLED.c ****   */
  92:Core/OLED/OLED.c **** uint32_t OLED_Pow(uint32_t X, uint32_t Y)
  93:Core/OLED/OLED.c **** {
 417              		.loc 1 93 1 is_stmt 1 view -0
 418              		.cfi_startproc
 419              		@ args = 0, pretend = 0, frame = 0
 420              		@ frame_needed = 0, uses_anonymous_args = 0
 421              		@ link register save eliminated.
 422              		.loc 1 93 1 is_stmt 0 view .LVU82
 423 0000 0246     		mov	r2, r0
  94:Core/OLED/OLED.c **** 	uint32_t Result = 1;
 424              		.loc 1 94 2 is_stmt 1 view .LVU83
 425              	.LVL41:
  95:Core/OLED/OLED.c **** 	while (Y--)
 426              		.loc 1 95 2 view .LVU84
  94:Core/OLED/OLED.c **** 	uint32_t Result = 1;
 427              		.loc 1 94 11 is_stmt 0 view .LVU85
 428 0002 0120     		movs	r0, #1
 429              	.LVL42:
 430              		.loc 1 95 8 view .LVU86
 431 0004 02E0     		b	.L31
 432              	.LVL43:
 433              	.L32:
  96:Core/OLED/OLED.c **** 	{
  97:Core/OLED/OLED.c **** 		Result *= X;
 434              		.loc 1 97 3 is_stmt 1 view .LVU87
 435              		.loc 1 97 10 is_stmt 0 view .LVU88
 436 0006 02FB00F0 		mul	r0, r2, r0
 437              	.LVL44:
  95:Core/OLED/OLED.c **** 	while (Y--)
 438              		.loc 1 95 10 view .LVU89
 439 000a 1946     		mov	r1, r3
 440              	.LVL45:
 441              	.L31:
  95:Core/OLED/OLED.c **** 	while (Y--)
 442              		.loc 1 95 9 is_stmt 1 view .LVU90
  95:Core/OLED/OLED.c **** 	while (Y--)
 443              		.loc 1 95 10 is_stmt 0 view .LVU91
 444 000c 4B1E     		subs	r3, r1, #1
 445              	.LVL46:
  95:Core/OLED/OLED.c **** 	while (Y--)
 446              		.loc 1 95 9 view .LVU92
 447 000e 0029     		cmp	r1, #0
 448 0010 F9D1     		bne	.L32
  98:Core/OLED/OLED.c **** 	}
  99:Core/OLED/OLED.c **** 	return Result;
 449              		.loc 1 99 2 is_stmt 1 view .LVU93
 100:Core/OLED/OLED.c **** }
 450              		.loc 1 100 1 is_stmt 0 view .LVU94
 451 0012 7047     		bx	lr
 452              		.cfi_endproc
 453              	.LFE71:
 455              		.section	.text.OLED_ShowNum,"ax",%progbits
 456              		.align	1
 457              		.global	OLED_ShowNum
 458              		.syntax unified
ARM GAS  /tmp/ccVvkUmm.s 			page 11


 459              		.thumb
 460              		.thumb_func
 462              	OLED_ShowNum:
 463              	.LVL47:
 464              	.LFB72:
 101:Core/OLED/OLED.c **** 
 102:Core/OLED/OLED.c **** /**
 103:Core/OLED/OLED.c ****   * @brief  OLED显示数字（十进制，正数）
 104:Core/OLED/OLED.c ****   * @param  Line 起始行位置，范围：1~4
 105:Core/OLED/OLED.c ****   * @param  Column 起始列位置，范围：1~16
 106:Core/OLED/OLED.c ****   * @param  Number 要显示的数字，范围：0~4294967295
 107:Core/OLED/OLED.c ****   * @param  Length 要显示数字的长度，范围：1~10
 108:Core/OLED/OLED.c ****   * @retval 无
 109:Core/OLED/OLED.c ****   */
 110:Core/OLED/OLED.c **** void OLED_ShowNum(uint8_t Line, uint8_t Column, uint32_t Number, uint8_t Length)
 111:Core/OLED/OLED.c **** {
 465              		.loc 1 111 1 is_stmt 1 view -0
 466              		.cfi_startproc
 467              		@ args = 0, pretend = 0, frame = 0
 468              		@ frame_needed = 0, uses_anonymous_args = 0
 469              		.loc 1 111 1 is_stmt 0 view .LVU96
 470 0000 2DE9F843 		push	{r3, r4, r5, r6, r7, r8, r9, lr}
 471              	.LCFI10:
 472              		.cfi_def_cfa_offset 32
 473              		.cfi_offset 3, -32
 474              		.cfi_offset 4, -28
 475              		.cfi_offset 5, -24
 476              		.cfi_offset 6, -20
 477              		.cfi_offset 7, -16
 478              		.cfi_offset 8, -12
 479              		.cfi_offset 9, -8
 480              		.cfi_offset 14, -4
 481 0004 8146     		mov	r9, r0
 482 0006 8846     		mov	r8, r1
 483 0008 1746     		mov	r7, r2
 484 000a 1E46     		mov	r6, r3
 112:Core/OLED/OLED.c **** 	uint8_t i;
 485              		.loc 1 112 2 is_stmt 1 view .LVU97
 113:Core/OLED/OLED.c **** 	for (i = 0; i < Length; i++)							
 486              		.loc 1 113 2 view .LVU98
 487              	.LVL48:
 488              		.loc 1 113 9 is_stmt 0 view .LVU99
 489 000c 0024     		movs	r4, #0
 490              		.loc 1 113 2 view .LVU100
 491 000e 19E0     		b	.L34
 492              	.LVL49:
 493              	.L35:
 114:Core/OLED/OLED.c **** 	{
 115:Core/OLED/OLED.c **** 		OLED_ShowChar(Line, Column + i, Number / OLED_Pow(10, Length - i - 1) % 10 + '0');
 494              		.loc 1 115 3 is_stmt 1 discriminator 3 view .LVU101
 495 0010 04EB0805 		add	r5, r4, r8
 496 0014 EDB2     		uxtb	r5, r5
 497              		.loc 1 115 64 is_stmt 0 discriminator 3 view .LVU102
 498 0016 311B     		subs	r1, r6, r4
 499              		.loc 1 115 44 discriminator 3 view .LVU103
 500 0018 0139     		subs	r1, r1, #1
 501 001a 0A20     		movs	r0, #10
ARM GAS  /tmp/ccVvkUmm.s 			page 12


 502 001c FFF7FEFF 		bl	OLED_Pow
 503              	.LVL50:
 504              		.loc 1 115 42 discriminator 3 view .LVU104
 505 0020 B7FBF0F0 		udiv	r0, r7, r0
 506              		.loc 1 115 73 discriminator 3 view .LVU105
 507 0024 094A     		ldr	r2, .L37
 508 0026 A2FB0032 		umull	r3, r2, r2, r0
 509 002a D208     		lsrs	r2, r2, #3
 510 002c 02EB8202 		add	r2, r2, r2, lsl #2
 511 0030 A0EB4202 		sub	r2, r0, r2, lsl #1
 512              		.loc 1 115 3 discriminator 3 view .LVU106
 513 0034 3032     		adds	r2, r2, #48
 514 0036 D2B2     		uxtb	r2, r2
 515 0038 2946     		mov	r1, r5
 516 003a 4846     		mov	r0, r9
 517 003c FFF7FEFF 		bl	OLED_ShowChar
 518              	.LVL51:
 113:Core/OLED/OLED.c **** 	for (i = 0; i < Length; i++)							
 519              		.loc 1 113 27 is_stmt 1 discriminator 3 view .LVU107
 520 0040 0134     		adds	r4, r4, #1
 521              	.LVL52:
 113:Core/OLED/OLED.c **** 	for (i = 0; i < Length; i++)							
 522              		.loc 1 113 27 is_stmt 0 discriminator 3 view .LVU108
 523 0042 E4B2     		uxtb	r4, r4
 524              	.LVL53:
 525              	.L34:
 113:Core/OLED/OLED.c **** 	for (i = 0; i < Length; i++)							
 526              		.loc 1 113 16 is_stmt 1 discriminator 1 view .LVU109
 527 0044 B442     		cmp	r4, r6
 528 0046 E3D3     		bcc	.L35
 116:Core/OLED/OLED.c **** 	}
 117:Core/OLED/OLED.c **** }
 529              		.loc 1 117 1 is_stmt 0 view .LVU110
 530 0048 BDE8F883 		pop	{r3, r4, r5, r6, r7, r8, r9, pc}
 531              	.LVL54:
 532              	.L38:
 533              		.loc 1 117 1 view .LVU111
 534              		.align	2
 535              	.L37:
 536 004c CDCCCCCC 		.word	-858993459
 537              		.cfi_endproc
 538              	.LFE72:
 540              		.section	.text.OLED_ShowSignedNum,"ax",%progbits
 541              		.align	1
 542              		.global	OLED_ShowSignedNum
 543              		.syntax unified
 544              		.thumb
 545              		.thumb_func
 547              	OLED_ShowSignedNum:
 548              	.LVL55:
 549              	.LFB73:
 118:Core/OLED/OLED.c **** 
 119:Core/OLED/OLED.c **** /**
 120:Core/OLED/OLED.c ****   * @brief  OLED显示数字（十进制，带符号数）
 121:Core/OLED/OLED.c ****   * @param  Line 起始行位置，范围：1~4
 122:Core/OLED/OLED.c ****   * @param  Column 起始列位置，范围：1~16
 123:Core/OLED/OLED.c ****   * @param  Number 要显示的数字，范围：-2147483648~2147483647
ARM GAS  /tmp/ccVvkUmm.s 			page 13


 124:Core/OLED/OLED.c ****   * @param  Length 要显示数字的长度，范围：1~10
 125:Core/OLED/OLED.c ****   * @retval 无
 126:Core/OLED/OLED.c ****   */
 127:Core/OLED/OLED.c **** void OLED_ShowSignedNum(uint8_t Line, uint8_t Column, int32_t Number, uint8_t Length)
 128:Core/OLED/OLED.c **** {
 550              		.loc 1 128 1 is_stmt 1 view -0
 551              		.cfi_startproc
 552              		@ args = 0, pretend = 0, frame = 0
 553              		@ frame_needed = 0, uses_anonymous_args = 0
 554              		.loc 1 128 1 is_stmt 0 view .LVU113
 555 0000 2DE9F843 		push	{r3, r4, r5, r6, r7, r8, r9, lr}
 556              	.LCFI11:
 557              		.cfi_def_cfa_offset 32
 558              		.cfi_offset 3, -32
 559              		.cfi_offset 4, -28
 560              		.cfi_offset 5, -24
 561              		.cfi_offset 6, -20
 562              		.cfi_offset 7, -16
 563              		.cfi_offset 8, -12
 564              		.cfi_offset 9, -8
 565              		.cfi_offset 14, -4
 566 0004 8046     		mov	r8, r0
 567 0006 8946     		mov	r9, r1
 568 0008 1E46     		mov	r6, r3
 129:Core/OLED/OLED.c **** 	uint8_t i;
 569              		.loc 1 129 2 is_stmt 1 view .LVU114
 130:Core/OLED/OLED.c **** 	uint32_t Number1;
 570              		.loc 1 130 2 view .LVU115
 131:Core/OLED/OLED.c **** 	if (Number >= 0)
 571              		.loc 1 131 2 view .LVU116
 572              		.loc 1 131 5 is_stmt 0 view .LVU117
 573 000a 171E     		subs	r7, r2, #0
 574 000c 04DB     		blt	.L40
 132:Core/OLED/OLED.c **** 	{
 133:Core/OLED/OLED.c **** 		OLED_ShowChar(Line, Column, '+');
 575              		.loc 1 133 3 is_stmt 1 view .LVU118
 576 000e 2B22     		movs	r2, #43
 577              	.LVL56:
 578              		.loc 1 133 3 is_stmt 0 view .LVU119
 579 0010 FFF7FEFF 		bl	OLED_ShowChar
 580              	.LVL57:
 134:Core/OLED/OLED.c **** 		Number1 = Number;
 581              		.loc 1 134 3 is_stmt 1 view .LVU120
 582              	.L41:
 135:Core/OLED/OLED.c **** 	}
 136:Core/OLED/OLED.c **** 	else
 137:Core/OLED/OLED.c **** 	{
 138:Core/OLED/OLED.c **** 		OLED_ShowChar(Line, Column, '-');
 139:Core/OLED/OLED.c **** 		Number1 = -Number;
 140:Core/OLED/OLED.c **** 	}
 141:Core/OLED/OLED.c **** 	for (i = 0; i < Length; i++)							
 583              		.loc 1 141 2 view .LVU121
 584              		.loc 1 141 9 is_stmt 0 view .LVU122
 585 0014 0024     		movs	r4, #0
 586              		.loc 1 141 2 view .LVU123
 587 0016 1FE0     		b	.L42
 588              	.LVL58:
ARM GAS  /tmp/ccVvkUmm.s 			page 14


 589              	.L40:
 138:Core/OLED/OLED.c **** 		Number1 = -Number;
 590              		.loc 1 138 3 is_stmt 1 view .LVU124
 591 0018 2D22     		movs	r2, #45
 592              	.LVL59:
 138:Core/OLED/OLED.c **** 		Number1 = -Number;
 593              		.loc 1 138 3 is_stmt 0 view .LVU125
 594 001a FFF7FEFF 		bl	OLED_ShowChar
 595              	.LVL60:
 139:Core/OLED/OLED.c **** 	}
 596              		.loc 1 139 3 is_stmt 1 view .LVU126
 139:Core/OLED/OLED.c **** 	}
 597              		.loc 1 139 13 is_stmt 0 view .LVU127
 598 001e 7F42     		rsbs	r7, r7, #0
 599              	.LVL61:
 139:Core/OLED/OLED.c **** 	}
 600              		.loc 1 139 13 view .LVU128
 601 0020 F8E7     		b	.L41
 602              	.LVL62:
 603              	.L43:
 142:Core/OLED/OLED.c **** 	{
 143:Core/OLED/OLED.c **** 		OLED_ShowChar(Line, Column + i + 1, Number1 / OLED_Pow(10, Length - i - 1) % 10 + '0');
 604              		.loc 1 143 3 is_stmt 1 discriminator 3 view .LVU129
 605              		.loc 1 143 30 is_stmt 0 discriminator 3 view .LVU130
 606 0022 04EB0905 		add	r5, r4, r9
 607 0026 EDB2     		uxtb	r5, r5
 608              		.loc 1 143 69 discriminator 3 view .LVU131
 609 0028 311B     		subs	r1, r6, r4
 610              		.loc 1 143 49 discriminator 3 view .LVU132
 611 002a 0139     		subs	r1, r1, #1
 612 002c 0A20     		movs	r0, #10
 613 002e FFF7FEFF 		bl	OLED_Pow
 614              	.LVL63:
 615              		.loc 1 143 47 discriminator 3 view .LVU133
 616 0032 B7FBF0F0 		udiv	r0, r7, r0
 617              		.loc 1 143 78 discriminator 3 view .LVU134
 618 0036 0A4A     		ldr	r2, .L45
 619 0038 A2FB0032 		umull	r3, r2, r2, r0
 620 003c D208     		lsrs	r2, r2, #3
 621 003e 02EB8202 		add	r2, r2, r2, lsl #2
 622 0042 A0EB4202 		sub	r2, r0, r2, lsl #1
 623              		.loc 1 143 3 discriminator 3 view .LVU135
 624 0046 3032     		adds	r2, r2, #48
 625 0048 691C     		adds	r1, r5, #1
 626 004a D2B2     		uxtb	r2, r2
 627 004c C9B2     		uxtb	r1, r1
 628 004e 4046     		mov	r0, r8
 629 0050 FFF7FEFF 		bl	OLED_ShowChar
 630              	.LVL64:
 141:Core/OLED/OLED.c **** 	{
 631              		.loc 1 141 27 is_stmt 1 discriminator 3 view .LVU136
 632 0054 0134     		adds	r4, r4, #1
 633              	.LVL65:
 141:Core/OLED/OLED.c **** 	{
 634              		.loc 1 141 27 is_stmt 0 discriminator 3 view .LVU137
 635 0056 E4B2     		uxtb	r4, r4
 636              	.LVL66:
ARM GAS  /tmp/ccVvkUmm.s 			page 15


 637              	.L42:
 141:Core/OLED/OLED.c **** 	{
 638              		.loc 1 141 16 is_stmt 1 discriminator 1 view .LVU138
 639 0058 B442     		cmp	r4, r6
 640 005a E2D3     		bcc	.L43
 144:Core/OLED/OLED.c **** 	}
 145:Core/OLED/OLED.c **** }
 641              		.loc 1 145 1 is_stmt 0 view .LVU139
 642 005c BDE8F883 		pop	{r3, r4, r5, r6, r7, r8, r9, pc}
 643              	.LVL67:
 644              	.L46:
 645              		.loc 1 145 1 view .LVU140
 646              		.align	2
 647              	.L45:
 648 0060 CDCCCCCC 		.word	-858993459
 649              		.cfi_endproc
 650              	.LFE73:
 652              		.section	.text.OLED_ShowHexNum,"ax",%progbits
 653              		.align	1
 654              		.global	OLED_ShowHexNum
 655              		.syntax unified
 656              		.thumb
 657              		.thumb_func
 659              	OLED_ShowHexNum:
 660              	.LVL68:
 661              	.LFB74:
 146:Core/OLED/OLED.c **** 
 147:Core/OLED/OLED.c **** /**
 148:Core/OLED/OLED.c ****   * @brief  OLED显示数字（十六进制，正数）
 149:Core/OLED/OLED.c ****   * @param  Line 起始行位置，范围：1~4
 150:Core/OLED/OLED.c ****   * @param  Column 起始列位置，范围：1~16
 151:Core/OLED/OLED.c ****   * @param  Number 要显示的数字，范围：0~0xFFFFFFFF
 152:Core/OLED/OLED.c ****   * @param  Length 要显示数字的长度，范围：1~8
 153:Core/OLED/OLED.c ****   * @retval 无
 154:Core/OLED/OLED.c ****   */
 155:Core/OLED/OLED.c **** void OLED_ShowHexNum(uint8_t Line, uint8_t Column, uint32_t Number, uint8_t Length)
 156:Core/OLED/OLED.c **** {
 662              		.loc 1 156 1 is_stmt 1 view -0
 663              		.cfi_startproc
 664              		@ args = 0, pretend = 0, frame = 0
 665              		@ frame_needed = 0, uses_anonymous_args = 0
 666              		.loc 1 156 1 is_stmt 0 view .LVU142
 667 0000 2DE9F041 		push	{r4, r5, r6, r7, r8, lr}
 668              	.LCFI12:
 669              		.cfi_def_cfa_offset 24
 670              		.cfi_offset 4, -24
 671              		.cfi_offset 5, -20
 672              		.cfi_offset 6, -16
 673              		.cfi_offset 7, -12
 674              		.cfi_offset 8, -8
 675              		.cfi_offset 14, -4
 676 0004 8046     		mov	r8, r0
 677 0006 0F46     		mov	r7, r1
 678 0008 1646     		mov	r6, r2
 679 000a 1D46     		mov	r5, r3
 157:Core/OLED/OLED.c **** 	uint8_t i, SingleNumber;
 680              		.loc 1 157 2 is_stmt 1 view .LVU143
ARM GAS  /tmp/ccVvkUmm.s 			page 16


 158:Core/OLED/OLED.c **** 	for (i = 0; i < Length; i++)							
 681              		.loc 1 158 2 view .LVU144
 682              	.LVL69:
 683              		.loc 1 158 9 is_stmt 0 view .LVU145
 684 000c 0024     		movs	r4, #0
 685              		.loc 1 158 2 view .LVU146
 686 000e 07E0     		b	.L48
 687              	.LVL70:
 688              	.L49:
 159:Core/OLED/OLED.c **** 	{
 160:Core/OLED/OLED.c **** 		SingleNumber = Number / OLED_Pow(16, Length - i - 1) % 16;
 161:Core/OLED/OLED.c **** 		if (SingleNumber < 10)
 162:Core/OLED/OLED.c **** 		{
 163:Core/OLED/OLED.c **** 			OLED_ShowChar(Line, Column + i, SingleNumber + '0');
 164:Core/OLED/OLED.c **** 		}
 165:Core/OLED/OLED.c **** 		else
 166:Core/OLED/OLED.c **** 		{
 167:Core/OLED/OLED.c **** 			OLED_ShowChar(Line, Column + i, SingleNumber - 10 + 'A');
 689              		.loc 1 167 4 is_stmt 1 view .LVU147
 690 0010 E119     		adds	r1, r4, r7
 691 0012 3732     		adds	r2, r2, #55
 692              	.LVL71:
 693              		.loc 1 167 4 is_stmt 0 view .LVU148
 694 0014 C9B2     		uxtb	r1, r1
 695 0016 4046     		mov	r0, r8
 696 0018 FFF7FEFF 		bl	OLED_ShowChar
 697              	.LVL72:
 698              	.L50:
 158:Core/OLED/OLED.c **** 	for (i = 0; i < Length; i++)							
 699              		.loc 1 158 27 is_stmt 1 discriminator 2 view .LVU149
 700 001c 0134     		adds	r4, r4, #1
 701              	.LVL73:
 158:Core/OLED/OLED.c **** 	for (i = 0; i < Length; i++)							
 702              		.loc 1 158 27 is_stmt 0 discriminator 2 view .LVU150
 703 001e E4B2     		uxtb	r4, r4
 704              	.LVL74:
 705              	.L48:
 158:Core/OLED/OLED.c **** 	for (i = 0; i < Length; i++)							
 706              		.loc 1 158 16 is_stmt 1 discriminator 1 view .LVU151
 707 0020 AC42     		cmp	r4, r5
 708 0022 11D2     		bcs	.L53
 160:Core/OLED/OLED.c **** 		if (SingleNumber < 10)
 709              		.loc 1 160 3 view .LVU152
 160:Core/OLED/OLED.c **** 		if (SingleNumber < 10)
 710              		.loc 1 160 47 is_stmt 0 view .LVU153
 711 0024 291B     		subs	r1, r5, r4
 160:Core/OLED/OLED.c **** 		if (SingleNumber < 10)
 712              		.loc 1 160 27 view .LVU154
 713 0026 0139     		subs	r1, r1, #1
 714 0028 1020     		movs	r0, #16
 715 002a FFF7FEFF 		bl	OLED_Pow
 716              	.LVL75:
 160:Core/OLED/OLED.c **** 		if (SingleNumber < 10)
 717              		.loc 1 160 25 view .LVU155
 718 002e B6FBF0F2 		udiv	r2, r6, r0
 160:Core/OLED/OLED.c **** 		if (SingleNumber < 10)
 719              		.loc 1 160 16 view .LVU156
ARM GAS  /tmp/ccVvkUmm.s 			page 17


 720 0032 02F00F02 		and	r2, r2, #15
 721              	.LVL76:
 161:Core/OLED/OLED.c **** 		{
 722              		.loc 1 161 3 is_stmt 1 view .LVU157
 161:Core/OLED/OLED.c **** 		{
 723              		.loc 1 161 6 is_stmt 0 view .LVU158
 724 0036 092A     		cmp	r2, #9
 725 0038 EAD8     		bhi	.L49
 163:Core/OLED/OLED.c **** 		}
 726              		.loc 1 163 4 is_stmt 1 view .LVU159
 727 003a E119     		adds	r1, r4, r7
 728 003c 3032     		adds	r2, r2, #48
 729              	.LVL77:
 163:Core/OLED/OLED.c **** 		}
 730              		.loc 1 163 4 is_stmt 0 view .LVU160
 731 003e C9B2     		uxtb	r1, r1
 732 0040 4046     		mov	r0, r8
 733 0042 FFF7FEFF 		bl	OLED_ShowChar
 734              	.LVL78:
 163:Core/OLED/OLED.c **** 		}
 735              		.loc 1 163 4 view .LVU161
 736 0046 E9E7     		b	.L50
 737              	.LVL79:
 738              	.L53:
 168:Core/OLED/OLED.c **** 		}
 169:Core/OLED/OLED.c **** 	}
 170:Core/OLED/OLED.c **** }
 739              		.loc 1 170 1 view .LVU162
 740 0048 BDE8F081 		pop	{r4, r5, r6, r7, r8, pc}
 741              		.loc 1 170 1 view .LVU163
 742              		.cfi_endproc
 743              	.LFE74:
 745              		.section	.text.OLED_ShowBinNum,"ax",%progbits
 746              		.align	1
 747              		.global	OLED_ShowBinNum
 748              		.syntax unified
 749              		.thumb
 750              		.thumb_func
 752              	OLED_ShowBinNum:
 753              	.LVL80:
 754              	.LFB75:
 171:Core/OLED/OLED.c **** 
 172:Core/OLED/OLED.c **** /**
 173:Core/OLED/OLED.c ****   * @brief  OLED显示数字（二进制，正数）
 174:Core/OLED/OLED.c ****   * @param  Line 起始行位置，范围：1~4
 175:Core/OLED/OLED.c ****   * @param  Column 起始列位置，范围：1~16
 176:Core/OLED/OLED.c ****   * @param  Number 要显示的数字，范围：0~1111 1111 1111 1111
 177:Core/OLED/OLED.c ****   * @param  Length 要显示数字的长度，范围：1~16
 178:Core/OLED/OLED.c ****   * @retval 无
 179:Core/OLED/OLED.c ****   */
 180:Core/OLED/OLED.c **** void OLED_ShowBinNum(uint8_t Line, uint8_t Column, uint32_t Number, uint8_t Length)
 181:Core/OLED/OLED.c **** {
 755              		.loc 1 181 1 is_stmt 1 view -0
 756              		.cfi_startproc
 757              		@ args = 0, pretend = 0, frame = 0
 758              		@ frame_needed = 0, uses_anonymous_args = 0
 759              		.loc 1 181 1 is_stmt 0 view .LVU165
ARM GAS  /tmp/ccVvkUmm.s 			page 18


 760 0000 2DE9F843 		push	{r3, r4, r5, r6, r7, r8, r9, lr}
 761              	.LCFI13:
 762              		.cfi_def_cfa_offset 32
 763              		.cfi_offset 3, -32
 764              		.cfi_offset 4, -28
 765              		.cfi_offset 5, -24
 766              		.cfi_offset 6, -20
 767              		.cfi_offset 7, -16
 768              		.cfi_offset 8, -12
 769              		.cfi_offset 9, -8
 770              		.cfi_offset 14, -4
 771 0004 8146     		mov	r9, r0
 772 0006 8846     		mov	r8, r1
 773 0008 1746     		mov	r7, r2
 774 000a 1E46     		mov	r6, r3
 182:Core/OLED/OLED.c **** 	uint8_t i;
 775              		.loc 1 182 2 is_stmt 1 view .LVU166
 183:Core/OLED/OLED.c **** 	for (i = 0; i < Length; i++)							
 776              		.loc 1 183 2 view .LVU167
 777              	.LVL81:
 778              		.loc 1 183 9 is_stmt 0 view .LVU168
 779 000c 0024     		movs	r4, #0
 780              		.loc 1 183 2 view .LVU169
 781 000e 12E0     		b	.L55
 782              	.LVL82:
 783              	.L56:
 184:Core/OLED/OLED.c **** 	{
 185:Core/OLED/OLED.c **** 		OLED_ShowChar(Line, Column + i, Number / OLED_Pow(2, Length - i - 1) % 2 + '0');
 784              		.loc 1 185 3 is_stmt 1 discriminator 3 view .LVU170
 785 0010 04EB0805 		add	r5, r4, r8
 786 0014 EDB2     		uxtb	r5, r5
 787              		.loc 1 185 63 is_stmt 0 discriminator 3 view .LVU171
 788 0016 311B     		subs	r1, r6, r4
 789              		.loc 1 185 44 discriminator 3 view .LVU172
 790 0018 0139     		subs	r1, r1, #1
 791 001a 0220     		movs	r0, #2
 792 001c FFF7FEFF 		bl	OLED_Pow
 793              	.LVL83:
 794              		.loc 1 185 42 discriminator 3 view .LVU173
 795 0020 B7FBF0F2 		udiv	r2, r7, r0
 796              		.loc 1 185 72 discriminator 3 view .LVU174
 797 0024 02F00102 		and	r2, r2, #1
 798              		.loc 1 185 3 discriminator 3 view .LVU175
 799 0028 3032     		adds	r2, r2, #48
 800 002a 2946     		mov	r1, r5
 801 002c 4846     		mov	r0, r9
 802 002e FFF7FEFF 		bl	OLED_ShowChar
 803              	.LVL84:
 183:Core/OLED/OLED.c **** 	for (i = 0; i < Length; i++)							
 804              		.loc 1 183 27 is_stmt 1 discriminator 3 view .LVU176
 805 0032 0134     		adds	r4, r4, #1
 806              	.LVL85:
 183:Core/OLED/OLED.c **** 	for (i = 0; i < Length; i++)							
 807              		.loc 1 183 27 is_stmt 0 discriminator 3 view .LVU177
 808 0034 E4B2     		uxtb	r4, r4
 809              	.LVL86:
 810              	.L55:
ARM GAS  /tmp/ccVvkUmm.s 			page 19


 183:Core/OLED/OLED.c **** 	for (i = 0; i < Length; i++)							
 811              		.loc 1 183 16 is_stmt 1 discriminator 1 view .LVU178
 812 0036 B442     		cmp	r4, r6
 813 0038 EAD3     		bcc	.L56
 186:Core/OLED/OLED.c **** 	}
 187:Core/OLED/OLED.c **** }
 814              		.loc 1 187 1 is_stmt 0 view .LVU179
 815 003a BDE8F883 		pop	{r3, r4, r5, r6, r7, r8, r9, pc}
 816              		.loc 1 187 1 view .LVU180
 817              		.cfi_endproc
 818              	.LFE75:
 820              		.section	.text.OLED_Init,"ax",%progbits
 821              		.align	1
 822              		.global	OLED_Init
 823              		.syntax unified
 824              		.thumb
 825              		.thumb_func
 827              	OLED_Init:
 828              	.LFB76:
 188:Core/OLED/OLED.c **** 
 189:Core/OLED/OLED.c **** /**
 190:Core/OLED/OLED.c ****   * @brief  OLED初始化
 191:Core/OLED/OLED.c ****   * @param  无
 192:Core/OLED/OLED.c ****   * @retval 无
 193:Core/OLED/OLED.c ****   */
 194:Core/OLED/OLED.c **** void OLED_Init(void)
 195:Core/OLED/OLED.c **** {
 829              		.loc 1 195 1 is_stmt 1 view -0
 830              		.cfi_startproc
 831              		@ args = 0, pretend = 0, frame = 0
 832              		@ frame_needed = 0, uses_anonymous_args = 0
 833 0000 08B5     		push	{r3, lr}
 834              	.LCFI14:
 835              		.cfi_def_cfa_offset 8
 836              		.cfi_offset 3, -8
 837              		.cfi_offset 14, -4
 196:Core/OLED/OLED.c **** 	HAL_Delay(100);
 838              		.loc 1 196 2 view .LVU182
 839 0002 6420     		movs	r0, #100
 840 0004 FFF7FEFF 		bl	HAL_Delay
 841              	.LVL87:
 197:Core/OLED/OLED.c **** 	
 198:Core/OLED/OLED.c **** 	OLED_WriteCommand(0xAE);	//关闭显示
 842              		.loc 1 198 2 view .LVU183
 843 0008 AE20     		movs	r0, #174
 844 000a FFF7FEFF 		bl	OLED_WriteCommand
 845              	.LVL88:
 199:Core/OLED/OLED.c **** 	
 200:Core/OLED/OLED.c **** 	OLED_WriteCommand(0xD5);	//设置显示时钟分频比/振荡器频率
 846              		.loc 1 200 2 view .LVU184
 847 000e D520     		movs	r0, #213
 848 0010 FFF7FEFF 		bl	OLED_WriteCommand
 849              	.LVL89:
 201:Core/OLED/OLED.c **** 	OLED_WriteCommand(0x80);
 850              		.loc 1 201 2 view .LVU185
 851 0014 8020     		movs	r0, #128
 852 0016 FFF7FEFF 		bl	OLED_WriteCommand
ARM GAS  /tmp/ccVvkUmm.s 			page 20


 853              	.LVL90:
 202:Core/OLED/OLED.c **** 	
 203:Core/OLED/OLED.c **** 	OLED_WriteCommand(0xA8);	//设置多路复用率
 854              		.loc 1 203 2 view .LVU186
 855 001a A820     		movs	r0, #168
 856 001c FFF7FEFF 		bl	OLED_WriteCommand
 857              	.LVL91:
 204:Core/OLED/OLED.c **** 	OLED_WriteCommand(0x3F);
 858              		.loc 1 204 2 view .LVU187
 859 0020 3F20     		movs	r0, #63
 860 0022 FFF7FEFF 		bl	OLED_WriteCommand
 861              	.LVL92:
 205:Core/OLED/OLED.c **** 	
 206:Core/OLED/OLED.c **** 	OLED_WriteCommand(0xD3);	//设置显示偏移
 862              		.loc 1 206 2 view .LVU188
 863 0026 D320     		movs	r0, #211
 864 0028 FFF7FEFF 		bl	OLED_WriteCommand
 865              	.LVL93:
 207:Core/OLED/OLED.c **** 	OLED_WriteCommand(0x00);
 866              		.loc 1 207 2 view .LVU189
 867 002c 0020     		movs	r0, #0
 868 002e FFF7FEFF 		bl	OLED_WriteCommand
 869              	.LVL94:
 208:Core/OLED/OLED.c **** 	
 209:Core/OLED/OLED.c **** 	OLED_WriteCommand(0x40);	//设置显示开始行
 870              		.loc 1 209 2 view .LVU190
 871 0032 4020     		movs	r0, #64
 872 0034 FFF7FEFF 		bl	OLED_WriteCommand
 873              	.LVL95:
 210:Core/OLED/OLED.c **** 	
 211:Core/OLED/OLED.c **** 	OLED_WriteCommand(0xA1);	//设置左右方向，0xA1正常 0xA0左右反置
 874              		.loc 1 211 2 view .LVU191
 875 0038 A120     		movs	r0, #161
 876 003a FFF7FEFF 		bl	OLED_WriteCommand
 877              	.LVL96:
 212:Core/OLED/OLED.c **** 	
 213:Core/OLED/OLED.c **** 	OLED_WriteCommand(0xC8);	//设置上下方向，0xC8正常 0xC0上下反置
 878              		.loc 1 213 2 view .LVU192
 879 003e C820     		movs	r0, #200
 880 0040 FFF7FEFF 		bl	OLED_WriteCommand
 881              	.LVL97:
 214:Core/OLED/OLED.c **** 
 215:Core/OLED/OLED.c **** 	OLED_WriteCommand(0xDA);	//设置COM引脚硬件配置
 882              		.loc 1 215 2 view .LVU193
 883 0044 DA20     		movs	r0, #218
 884 0046 FFF7FEFF 		bl	OLED_WriteCommand
 885              	.LVL98:
 216:Core/OLED/OLED.c **** 	OLED_WriteCommand(0x12);
 886              		.loc 1 216 2 view .LVU194
 887 004a 1220     		movs	r0, #18
 888 004c FFF7FEFF 		bl	OLED_WriteCommand
 889              	.LVL99:
 217:Core/OLED/OLED.c **** 	
 218:Core/OLED/OLED.c **** 	OLED_WriteCommand(0x81);	//设置对比度控制
 890              		.loc 1 218 2 view .LVU195
 891 0050 8120     		movs	r0, #129
 892 0052 FFF7FEFF 		bl	OLED_WriteCommand
ARM GAS  /tmp/ccVvkUmm.s 			page 21


 893              	.LVL100:
 219:Core/OLED/OLED.c **** 	OLED_WriteCommand(0xCF);
 894              		.loc 1 219 2 view .LVU196
 895 0056 CF20     		movs	r0, #207
 896 0058 FFF7FEFF 		bl	OLED_WriteCommand
 897              	.LVL101:
 220:Core/OLED/OLED.c **** 
 221:Core/OLED/OLED.c **** 	OLED_WriteCommand(0xD9);	//设置预充电周期
 898              		.loc 1 221 2 view .LVU197
 899 005c D920     		movs	r0, #217
 900 005e FFF7FEFF 		bl	OLED_WriteCommand
 901              	.LVL102:
 222:Core/OLED/OLED.c **** 	OLED_WriteCommand(0xF1);
 902              		.loc 1 222 2 view .LVU198
 903 0062 F120     		movs	r0, #241
 904 0064 FFF7FEFF 		bl	OLED_WriteCommand
 905              	.LVL103:
 223:Core/OLED/OLED.c **** 
 224:Core/OLED/OLED.c **** 	OLED_WriteCommand(0xDB);	//设置VCOMH取消选择级别
 906              		.loc 1 224 2 view .LVU199
 907 0068 DB20     		movs	r0, #219
 908 006a FFF7FEFF 		bl	OLED_WriteCommand
 909              	.LVL104:
 225:Core/OLED/OLED.c **** 	OLED_WriteCommand(0x30);
 910              		.loc 1 225 2 view .LVU200
 911 006e 3020     		movs	r0, #48
 912 0070 FFF7FEFF 		bl	OLED_WriteCommand
 913              	.LVL105:
 226:Core/OLED/OLED.c **** 
 227:Core/OLED/OLED.c **** 	OLED_WriteCommand(0xA4);	//设置整个显示打开/关闭
 914              		.loc 1 227 2 view .LVU201
 915 0074 A420     		movs	r0, #164
 916 0076 FFF7FEFF 		bl	OLED_WriteCommand
 917              	.LVL106:
 228:Core/OLED/OLED.c **** 
 229:Core/OLED/OLED.c **** 	OLED_WriteCommand(0xA6);	//设置正常/倒转显示
 918              		.loc 1 229 2 view .LVU202
 919 007a A620     		movs	r0, #166
 920 007c FFF7FEFF 		bl	OLED_WriteCommand
 921              	.LVL107:
 230:Core/OLED/OLED.c **** 
 231:Core/OLED/OLED.c **** 	OLED_WriteCommand(0x8D);	//设置充电泵
 922              		.loc 1 231 2 view .LVU203
 923 0080 8D20     		movs	r0, #141
 924 0082 FFF7FEFF 		bl	OLED_WriteCommand
 925              	.LVL108:
 232:Core/OLED/OLED.c **** 	OLED_WriteCommand(0x14);
 926              		.loc 1 232 2 view .LVU204
 927 0086 1420     		movs	r0, #20
 928 0088 FFF7FEFF 		bl	OLED_WriteCommand
 929              	.LVL109:
 233:Core/OLED/OLED.c **** 
 234:Core/OLED/OLED.c **** 	OLED_WriteCommand(0xAF);	//开启显示
 930              		.loc 1 234 2 view .LVU205
 931 008c AF20     		movs	r0, #175
 932 008e FFF7FEFF 		bl	OLED_WriteCommand
 933              	.LVL110:
ARM GAS  /tmp/ccVvkUmm.s 			page 22


 235:Core/OLED/OLED.c **** 		
 236:Core/OLED/OLED.c **** 	OLED_Clear();				//OLED清屏
 934              		.loc 1 236 2 view .LVU206
 935 0092 FFF7FEFF 		bl	OLED_Clear
 936              	.LVL111:
 237:Core/OLED/OLED.c **** }
 937              		.loc 1 237 1 is_stmt 0 view .LVU207
 938 0096 08BD     		pop	{r3, pc}
 939              		.cfi_endproc
 940              	.LFE76:
 942              		.global	OLED_F8x16
 943              		.section	.rodata.OLED_F8x16,"a"
 944              		.align	2
 947              	OLED_F8x16:
 948 0000 00000000 		.ascii	"\000\000\000\000\000\000\000\000\000\000\000\000\000"
 948      00000000 
 948      00000000 
 948      00
 949 000d 000000   		.ascii	"\000\000\000"
 950 0010 000000F8 		.ascii	"\000\000\000\370\000\000\000\000\000\000\00030\000\000"
 950      00000000 
 950      00000033 
 950      300000
 951 001f 00       		.ascii	"\000"
 952 0020 00100C06 		.ascii	"\000\020\014\006\020\014\006\000\000\000\000\000\000"
 952      100C0600 
 952      00000000 
 952      00
 953 002d 000000   		.ascii	"\000\000\000"
 954 0030 40C07840 		.ascii	"@\300x@\300x@\000\004?\004\004?\004\004\000"
 954      C0784000 
 954      043F0404 
 954      3F040400 
 955 0040 007088FC 		.ascii	"\000p\210\374\0100\000\000\000\030 \377!\036\000\000"
 955      08300000 
 955      001820FF 
 955      211E0000 
 956 0050 F008F000 		.ascii	"\360\010\360\000\340\030\000\000\000!\034\003\036!\036"
 956      E0180000 
 956      00211C03 
 956      1E211E
 957 005f 00       		.ascii	"\000"
 958 0060 00F00888 		.ascii	"\000\360\010\210p\000\000\000\036!#$\031'!\020"
 958      70000000 
 958      1E212324 
 958      19272110 
 959 0070 10160E00 		.ascii	"\020\026\016\000\000\000\000\000\000\000\000\000\000"
 959      00000000 
 959      00000000 
 959      00
 960 007d 000000   		.ascii	"\000\000\000"
 961 0080 000000E0 		.ascii	"\000\000\000\340\030\004\002\000\000\000\000\007\030"
 961      18040200 
 961      00000007 
 961      18
 962 008d 204000   		.ascii	" @\000"
 963 0090 00020418 		.ascii	"\000\002\004\030\340\000\000\000\000@ \030\007\000\000"
ARM GAS  /tmp/ccVvkUmm.s 			page 23


 963      E0000000 
 963      00402018 
 963      070000
 964 009f 00       		.ascii	"\000"
 965 00a0 404080F0 		.ascii	"@@\200\360\200@@\000\002\002\001\017\001\002\002\000"
 965      80404000 
 965      0202010F 
 965      01020200 
 966 00b0 000000F0 		.ascii	"\000\000\000\360\000\000\000\000\001\001\001\037\001"
 966      00000000 
 966      0101011F 
 966      01
 967 00bd 010100   		.ascii	"\001\001\000"
 968 00c0 00000000 		.ascii	"\000\000\000\000\000\000\000\000\200\260p\000\000\000"
 968      00000000 
 968      80B07000 
 968      0000
 969 00ce 0000     		.ascii	"\000\000"
 970 00d0 00000000 		.ascii	"\000\000\000\000\000\000\000\000\000\001\001\001\001"
 970      00000000 
 970      00010101 
 970      01
 971 00dd 010101   		.ascii	"\001\001\001"
 972 00e0 00000000 		.ascii	"\000\000\000\000\000\000\000\000\00000\000\000\000\000"
 972      00000000 
 972      00303000 
 972      000000
 973 00ef 00       		.ascii	"\000"
 974 00f0 00000000 		.ascii	"\000\000\000\000\200`\030\004\000`\030\006\001\000\000"
 974      80601804 
 974      00601806 
 974      010000
 975 00ff 00       		.ascii	"\000"
 976 0100 00E01008 		.ascii	"\000\340\020\010\010\020\340\000\000\017\020  \020\017"
 976      0810E000 
 976      000F1020 
 976      20100F
 977 010f 00       		.ascii	"\000"
 978 0110 001010F8 		.ascii	"\000\020\020\370\000\000\000\000\000  ?  \000\000"
 978      00000000 
 978      0020203F 
 978      20200000 
 979 0120 00700808 		.ascii	"\000p\010\010\010\210p\000\0000($\"!0\000"
 979      08887000 
 979      00302824 
 979      22213000 
 980 0130 00300888 		.ascii	"\0000\010\210\210H0\000\000\030   \021\016\000"
 980      88483000 
 980      00182020 
 980      20110E00 
 981 0140 0000C020 		.ascii	"\000\000\300 \020\370\000\000\000\007\004$$?$\000"
 981      10F80000 
 981      00070424 
 981      243F2400 
 982 0150 00F80888 		.ascii	"\000\370\010\210\210\010\010\000\000\031!  \021\016"
 982      88080800 
 982      00192120 
ARM GAS  /tmp/ccVvkUmm.s 			page 24


 982      20110E
 983 015f 00       		.ascii	"\000"
 984 0160 00E01088 		.ascii	"\000\340\020\210\210\030\000\000\000\017\021  \021\016"
 984      88180000 
 984      000F1120 
 984      20110E
 985 016f 00       		.ascii	"\000"
 986 0170 00380808 		.ascii	"\0008\010\010\3108\010\000\000\000\000?\000\000\000"
 986      C8380800 
 986      0000003F 
 986      000000
 987 017f 00       		.ascii	"\000"
 988 0180 00708808 		.ascii	"\000p\210\010\010\210p\000\000\034\"!!\"\034\000"
 988      08887000 
 988      001C2221 
 988      21221C00 
 989 0190 00E01008 		.ascii	"\000\340\020\010\010\020\340\000\000\0001\"\"\021\017"
 989      0810E000 
 989      00003122 
 989      22110F
 990 019f 00       		.ascii	"\000"
 991 01a0 000000C0 		.ascii	"\000\000\000\300\300\000\000\000\000\000\00000\000\000"
 991      C0000000 
 991      00000030 
 991      300000
 992 01af 00       		.ascii	"\000"
 993 01b0 00000080 		.ascii	"\000\000\000\200\000\000\000\000\000\000\200`\000\000"
 993      00000000 
 993      00008060 
 993      0000
 994 01be 0000     		.ascii	"\000\000"
 995 01c0 00008040 		.ascii	"\000\000\200@ \020\010\000\000\001\002\004\010\020 "
 995      20100800 
 995      00010204 
 995      081020
 996 01cf 00       		.ascii	"\000"
 997 01d0 40404040 		.ascii	"@@@@@@@\000\004\004\004\004\004\004\004\000"
 997      40404000 
 997      04040404 
 997      04040400 
 998 01e0 00081020 		.ascii	"\000\010\020 @\200\000\000\000 \020\010\004\002\001"
 998      40800000 
 998      00201008 
 998      040201
 999 01ef 00       		.ascii	"\000"
 1000 01f0 00704808 		.ascii	"\000pH\010\010\010\360\000\000\000\00006\001\000\000"
 1000      0808F000 
 1000      00000030 
 1000      36010000 
 1001 0200 C030C828 		.ascii	"\3000\310(\350\020\340\000\007\030'$#\024\013\000"
 1001      E810E000 
 1001      07182724 
 1001      23140B00 
 1002 0210 0000C038 		.ascii	"\000\000\3008\340\000\000\000 <#\002\002'8 "
 1002      E0000000 
 1002      203C2302 
 1002      02273820 
ARM GAS  /tmp/ccVvkUmm.s 			page 25


 1003 0220 08F88888 		.ascii	"\010\370\210\210\210p\000\000 ?   \021\016\000"
 1003      88700000 
 1003      203F2020 
 1003      20110E00 
 1004 0230 C0300808 		.ascii	"\3000\010\010\010\0108\000\007\030   \020\010\000"
 1004      08083800 
 1004      07182020 
 1004      20100800 
 1005 0240 08F80808 		.ascii	"\010\370\010\010\010\020\340\000 ?   \020\017\000"
 1005      0810E000 
 1005      203F2020 
 1005      20100F00 
 1006 0250 08F88888 		.ascii	"\010\370\210\210\350\010\020\000 ?  # \030\000"
 1006      E8081000 
 1006      203F2020 
 1006      23201800 
 1007 0260 08F88888 		.ascii	"\010\370\210\210\350\010\020\000 ? \000\003\000\000"
 1007      E8081000 
 1007      203F2000 
 1007      030000
 1008 026f 00       		.ascii	"\000"
 1009 0270 C0300808 		.ascii	"\3000\010\010\0108\000\000\007\030  \"\036\002\000"
 1009      08380000 
 1009      07182020 
 1009      221E0200 
 1010 0280 08F80800 		.ascii	"\010\370\010\000\000\010\370\010 ?!\001\001!? "
 1010      0008F808 
 1010      203F2101 
 1010      01213F20 
 1011 0290 000808F8 		.ascii	"\000\010\010\370\010\010\000\000\000  ?  \000\000"
 1011      08080000 
 1011      0020203F 
 1011      20200000 
 1012 02a0 00000808 		.ascii	"\000\000\010\010\370\010\010\000\300\200\200\200\177"
 1012      F8080800 
 1012      C0808080 
 1012      7F
 1013 02ad 000000   		.ascii	"\000\000\000"
 1014 02b0 08F888C0 		.ascii	"\010\370\210\300(\030\010\000 ? \001&8 \000"
 1014      28180800 
 1014      203F2001 
 1014      26382000 
 1015 02c0 08F80800 		.ascii	"\010\370\010\000\000\000\000\000 ?    0\000"
 1015      00000000 
 1015      203F2020 
 1015      20203000 
 1016 02d0 08F8F800 		.ascii	"\010\370\370\000\370\370\010\000 ?\000?\000? \000"
 1016      F8F80800 
 1016      203F003F 
 1016      003F2000 
 1017 02e0 08F830C0 		.ascii	"\010\3700\300\000\010\370\010 ? \000\007\030?\000"
 1017      0008F808 
 1017      203F2000 
 1017      07183F00 
 1018 02f0 E0100808 		.ascii	"\340\020\010\010\010\020\340\000\017\020   \020\017"
 1018      0810E000 
 1018      0F102020 
ARM GAS  /tmp/ccVvkUmm.s 			page 26


 1018      20100F
 1019 02ff 00       		.ascii	"\000"
 1020 0300 08F80808 		.ascii	"\010\370\010\010\010\010\360\000 ?!\001\001\001\000"
 1020      0808F000 
 1020      203F2101 
 1020      010100
 1021 030f 00       		.ascii	"\000"
 1022 0310 E0100808 		.ascii	"\340\020\010\010\010\020\340\000\017\030$$8PO\000"
 1022      0810E000 
 1022      0F182424 
 1022      38504F00 
 1023 0320 08F88888 		.ascii	"\010\370\210\210\210\210p\000 ? \000\003\0140 "
 1023      88887000 
 1023      203F2000 
 1023      030C3020 
 1024 0330 00708808 		.ascii	"\000p\210\010\010\0108\000\0008 !!\"\034\000"
 1024      08083800 
 1024      00382021 
 1024      21221C00 
 1025 0340 180808F8 		.ascii	"\030\010\010\370\010\010\030\000\000\000 ? \000\000"
 1025      08081800 
 1025      0000203F 
 1025      200000
 1026 034f 00       		.ascii	"\000"
 1027 0350 08F80800 		.ascii	"\010\370\010\000\000\010\370\010\000\037    \037\000"
 1027      0008F808 
 1027      001F2020 
 1027      20201F00 
 1028 0360 08788800 		.ascii	"\010x\210\000\000\3108\010\000\000\0078\016\001\000"
 1028      00C83808 
 1028      00000738 
 1028      0E0100
 1029 036f 00       		.ascii	"\000"
 1030 0370 F80800F8 		.ascii	"\370\010\000\370\000\010\370\000\003<\007\000\007<\003"
 1030      0008F800 
 1030      033C0700 
 1030      073C03
 1031 037f 00       		.ascii	"\000"
 1032 0380 08186880 		.ascii	"\010\030h\200\200h\030\010 0,\003\003,0 "
 1032      80681808 
 1032      20302C03 
 1032      032C3020 
 1033 0390 0838C800 		.ascii	"\0108\310\000\3108\010\000\000\000 ? \000\000\000"
 1033      C8380800 
 1033      0000203F 
 1033      20000000 
 1034 03a0 10080808 		.ascii	"\020\010\010\010\3108\010\000 8&!  \030\000"
 1034      C8380800 
 1034      20382621 
 1034      20201800 
 1035 03b0 000000FE 		.ascii	"\000\000\000\376\002\002\002\000\000\000\000\177@@@"
 1035      02020200 
 1035      0000007F 
 1035      404040
 1036 03bf 00       		.ascii	"\000"
 1037 03c0 000C30C0 		.ascii	"\000\0140\300\000\000\000\000\000\000\000\001\0068\300"
 1037      00000000 
ARM GAS  /tmp/ccVvkUmm.s 			page 27


 1037      00000001 
 1037      0638C0
 1038 03cf 00       		.ascii	"\000"
 1039 03d0 00020202 		.ascii	"\000\002\002\002\376\000\000\000\000@@@\177\000\000"
 1039      FE000000 
 1039      00404040 
 1039      7F0000
 1040 03df 00       		.ascii	"\000"
 1041 03e0 00000402 		.ascii	"\000\000\004\002\002\002\004\000\000\000\000\000\000"
 1041      02020400 
 1041      00000000 
 1041      00
 1042 03ed 000000   		.ascii	"\000\000\000"
 1043 03f0 00000000 		.ascii	"\000\000\000\000\000\000\000\000\200\200\200\200\200"
 1043      00000000 
 1043      80808080 
 1043      80
 1044 03fd 808080   		.ascii	"\200\200\200"
 1045 0400 00020204 		.ascii	"\000\002\002\004\000\000\000\000\000\000\000\000\000"
 1045      00000000 
 1045      00000000 
 1045      00
 1046 040d 000000   		.ascii	"\000\000\000"
 1047 0410 00008080 		.ascii	"\000\000\200\200\200\200\000\000\000\031$\"\"\"? "
 1047      80800000 
 1047      00192422 
 1047      22223F20 
 1048 0420 08F80080 		.ascii	"\010\370\000\200\200\000\000\000\000?\021  \021\016"
 1048      80000000 
 1048      003F1120 
 1048      20110E
 1049 042f 00       		.ascii	"\000"
 1050 0430 00000080 		.ascii	"\000\000\000\200\200\200\000\000\000\016\021   \021"
 1050      80800000 
 1050      000E1120 
 1050      202011
 1051 043f 00       		.ascii	"\000"
 1052 0440 00000080 		.ascii	"\000\000\000\200\200\210\370\000\000\016\021  \020?"
 1052      8088F800 
 1052      000E1120 
 1052      20103F
 1053 044f 20       		.ascii	" "
 1054 0450 00008080 		.ascii	"\000\000\200\200\200\200\000\000\000\037\"\"\"\"\023"
 1054      80800000 
 1054      001F2222 
 1054      222213
 1055 045f 00       		.ascii	"\000"
 1056 0460 008080F0 		.ascii	"\000\200\200\360\210\210\210\030\000  ?  \000\000"
 1056      88888818 
 1056      0020203F 
 1056      20200000 
 1057 0470 00008080 		.ascii	"\000\000\200\200\200\200\200\000\000k\224\224\224\223"
 1057      80808000 
 1057      006B9494 
 1057      9493
 1058 047e 6000     		.ascii	"`\000"
 1059 0480 08F80080 		.ascii	"\010\370\000\200\200\200\000\000 ?!\000\000 ? "
ARM GAS  /tmp/ccVvkUmm.s 			page 28


 1059      80800000 
 1059      203F2100 
 1059      00203F20 
 1060 0490 00809898 		.ascii	"\000\200\230\230\000\000\000\000\000  ?  \000\000"
 1060      00000000 
 1060      0020203F 
 1060      20200000 
 1061 04a0 00000080 		.ascii	"\000\000\000\200\230\230\000\000\000\300\200\200\200"
 1061      98980000 
 1061      00C08080 
 1061      80
 1062 04ad 7F0000   		.ascii	"\177\000\000"
 1063 04b0 08F80000 		.ascii	"\010\370\000\000\200\200\200\000 ?$\002-0 \000"
 1063      80808000 
 1063      203F2402 
 1063      2D302000 
 1064 04c0 000808F8 		.ascii	"\000\010\010\370\000\000\000\000\000  ?  \000\000"
 1064      00000000 
 1064      0020203F 
 1064      20200000 
 1065 04d0 80808080 		.ascii	"\200\200\200\200\200\200\200\000 ? \000? \000?"
 1065      80808000 
 1065      203F2000 
 1065      3F20003F 
 1066 04e0 80800080 		.ascii	"\200\200\000\200\200\200\000\000 ?!\000\000 ? "
 1066      80800000 
 1066      203F2100 
 1066      00203F20 
 1067 04f0 00008080 		.ascii	"\000\000\200\200\200\200\000\000\000\037    \037\000"
 1067      80800000 
 1067      001F2020 
 1067      20201F00 
 1068 0500 80800080 		.ascii	"\200\200\000\200\200\000\000\000\200\377\241  \021\016"
 1068      80000000 
 1068      80FFA120 
 1068      20110E
 1069 050f 00       		.ascii	"\000"
 1070 0510 00000080 		.ascii	"\000\000\000\200\200\200\200\000\000\016\021  \240\377"
 1070      80808000 
 1070      000E1120 
 1070      20A0FF
 1071 051f 80       		.ascii	"\200"
 1072 0520 80808000 		.ascii	"\200\200\200\000\200\200\200\000  ?! \000\001\000"
 1072      80808000 
 1072      20203F21 
 1072      20000100 
 1073 0530 00008080 		.ascii	"\000\000\200\200\200\200\200\000\0003$$$$\031\000"
 1073      80808000 
 1073      00332424 
 1073      24241900 
 1074 0540 008080E0 		.ascii	"\000\200\200\340\200\200\000\000\000\000\000\037  \000"
 1074      80800000 
 1074      0000001F 
 1074      202000
 1075 054f 00       		.ascii	"\000"
 1076 0550 80800000 		.ascii	"\200\200\000\000\000\200\200\000\000\037   \020? "
 1076      00808000 
ARM GAS  /tmp/ccVvkUmm.s 			page 29


 1076      001F2020 
 1076      20103F20 
 1077 0560 80808000 		.ascii	"\200\200\200\000\000\200\200\200\000\001\0160\010\006"
 1077      00808080 
 1077      00010E30 
 1077      0806
 1078 056e 0100     		.ascii	"\001\000"
 1079 0570 80800080 		.ascii	"\200\200\000\200\000\200\200\200\0170\014\003\0140\017"
 1079      00808080 
 1079      0F300C03 
 1079      0C300F
 1080 057f 00       		.ascii	"\000"
 1081 0580 00808000 		.ascii	"\000\200\200\000\200\200\200\000\000 1.\0161 \000"
 1081      80808000 
 1081      0020312E 
 1081      0E312000 
 1082 0590 80808000 		.ascii	"\200\200\200\000\000\200\200\200\200\201\216p\030\006"
 1082      00808080 
 1082      80818E70 
 1082      1806
 1083 059e 0100     		.ascii	"\001\000"
 1084 05a0 00808080 		.ascii	"\000\200\200\200\200\200\200\000\000!0,\"!0\000"
 1084      80808000 
 1084      0021302C 
 1084      22213000 
 1085 05b0 00000000 		.ascii	"\000\000\000\000\200|\002\002\000\000\000\000\000?@"
 1085      807C0202 
 1085      00000000 
 1085      003F40
 1086 05bf 40       		.ascii	"@"
 1087 05c0 00000000 		.ascii	"\000\000\000\000\377\000\000\000\000\000\000\000\377"
 1087      FF000000 
 1087      00000000 
 1087      FF
 1088 05cd 000000   		.ascii	"\000\000\000"
 1089 05d0 0002027C 		.ascii	"\000\002\002|\200\000\000\000\000@@?\000\000\000\000"
 1089      80000000 
 1089      0040403F 
 1089      00000000 
 1090 05e0 00060101 		.ascii	"\000\006\001\001\002\002\004\004\000\000\000\000\000"
 1090      02020404 
 1090      00000000 
 1090      00
 1091 05ed 000000   		.ascii	"\000\000\000"
 1092              		.text
 1093              	.Letext0:
 1094              		.file 2 "/nix/store/244x2dv48nan65bmpk2pv3pfl5s5jjn8-gcc-arm-embedded-12.3.rel1/arm-none-eabi/incl
 1095              		.file 3 "/nix/store/244x2dv48nan65bmpk2pv3pfl5s5jjn8-gcc-arm-embedded-12.3.rel1/arm-none-eabi/incl
 1096              		.file 4 "Drivers/CMSIS/Device/ST/STM32F1xx/Include/stm32f103xb.h"
 1097              		.file 5 "Drivers/STM32F1xx_HAL_Driver/Inc/stm32f1xx_hal_def.h"
 1098              		.file 6 "Drivers/STM32F1xx_HAL_Driver/Inc/stm32f1xx_hal_dma.h"
 1099              		.file 7 "Drivers/STM32F1xx_HAL_Driver/Inc/stm32f1xx_hal_i2c.h"
 1100              		.file 8 "Core/OLED/OLED_Font.h"
 1101              		.file 9 "Core/Inc/i2c.h"
 1102              		.file 10 "Drivers/STM32F1xx_HAL_Driver/Inc/stm32f1xx_hal.h"
ARM GAS  /tmp/ccVvkUmm.s 			page 30

